target datalayout = "e-m:e-p270:32:32-p271:32:32-p272:64:64-i64:64-i128:128-f80:128-n8:16:32:64-S128"
target triple = "x86_64-pc-linux-gnu"

%struct.rb_data_type_struct = type { ptr, %struct.anon, ptr, ptr, i64 }
%struct.anon = type { ptr, ptr, ptr, ptr, [1 x ptr] }
%struct.strscanner = type { i64, i64, i64, i64, %struct.re_registers, i64, i8 }
%struct.re_registers = type { i32, i32, ptr, ptr }

@strscanner_type = internal constant %struct.rb_data_type_struct { ptr @.str.2, %struct.anon { ptr @strscan_mark, ptr @strscan_free, ptr @strscan_memsize, ptr null, [1 x ptr] zeroinitializer }, ptr null, ptr null, i64 1 }, align 8

; Function Attrs: nounwind sspstrong uwtable
define internal ptr @check_strscan(i64 noundef %0) #0 {
  %2 = alloca i64, align 8
  store i64 %0, ptr %2, align 8, !tbaa !6
  %3 = load i64, ptr %2, align 8, !tbaa !6
  %4 = call ptr @rb_check_typeddata(i64 noundef %3, ptr noundef @strscanner_type)
  ret ptr %4
}

; Function Attrs: nounwind sspstrong uwtable
define internal i64 @strscan_init_copy(i64 noundef %0, i64 noundef %1) #0 {
  %3 = alloca i64, align 8
  %4 = alloca i64, align 8
  %5 = alloca ptr, align 8
  %6 = alloca ptr, align 8
  %7 = alloca ptr, align 8
  %8 = alloca ptr, align 8
  store i64 %0, ptr %3, align 8, !tbaa !6
  store i64 %1, ptr %4, align 8, !tbaa !6
  call void @llvm.lifetime.start.p0(i64 8, ptr %5) #23
  call void @llvm.lifetime.start.p0(i64 8, ptr %6) #23
  %9 = load i64, ptr %3, align 8, !tbaa !6
  %10 = call ptr @check_strscan(i64 noundef %9)
  store ptr %10, ptr %5, align 8, !tbaa !15
  %11 = load i64, ptr %4, align 8, !tbaa !6
  %12 = call ptr @check_strscan(i64 noundef %11)
  store ptr %12, ptr %6, align 8, !tbaa !15
  %13 = load ptr, ptr %5, align 8, !tbaa !15
  %14 = load ptr, ptr %6, align 8, !tbaa !15
  %15 = icmp ne ptr %13, %14
  br i1 %15, label %16, label %48

16:                                               ; preds = %2
  %17 = load ptr, ptr %6, align 8, !tbaa !15
  %18 = getelementptr inbounds nuw %struct.strscanner, ptr %17, i32 0, i32 0
  %19 = load i64, ptr %18, align 8, !tbaa !17
  %20 = load ptr, ptr %5, align 8, !tbaa !15
  %21 = getelementptr inbounds nuw %struct.strscanner, ptr %20, i32 0, i32 0
  store i64 %19, ptr %21, align 8, !tbaa !17
  %22 = load ptr, ptr %6, align 8, !tbaa !15
  %23 = getelementptr inbounds nuw %struct.strscanner, ptr %22, i32 0, i32 1
  %24 = load i64, ptr %23, align 8, !tbaa !22
  %25 = load ptr, ptr %5, align 8, !tbaa !15
  %26 = getelementptr inbounds nuw %struct.strscanner, ptr %25, i32 0, i32 1
  store i64 %24, ptr %26, align 8, !tbaa !22
  %27 = load ptr, ptr %6, align 8, !tbaa !15
  %28 = getelementptr inbounds nuw %struct.strscanner, ptr %27, i32 0, i32 2
  %29 = load i64, ptr %28, align 8, !tbaa !26
  %30 = load ptr, ptr %5, align 8, !tbaa !15
  %31 = getelementptr inbounds nuw %struct.strscanner, ptr %30, i32 0, i32 2
  store i64 %29, ptr %31, align 8, !tbaa !26
  %32 = load ptr, ptr %6, align 8, !tbaa !15
  %33 = getelementptr inbounds nuw %struct.strscanner, ptr %32, i32 0, i32 3
  %34 = load i64, ptr %33, align 8, !tbaa !27
  %35 = load ptr, ptr %5, align 8, !tbaa !15
  %36 = getelementptr inbounds nuw %struct.strscanner, ptr %35, i32 0, i32 3
  store i64 %34, ptr %36, align 8, !tbaa !27
  %37 = load ptr, ptr %5, align 8, !tbaa !15
  %38 = getelementptr inbounds nuw %struct.strscanner, ptr %37, i32 0, i32 4
  %39 = load ptr, ptr %6, align 8, !tbaa !15
  %40 = getelementptr inbounds nuw %struct.strscanner, ptr %39, i32 0, i32 4
  %41 = call i32 @rb_reg_region_copy(ptr noundef %38, ptr noundef %40)
  %42 = icmp ne i32 %41, 0
  br i1 %42, label %43, label %44

43:                                               ; preds = %16
  call void @rb_memerror() #26
  unreachable

44:                                               ; preds = %16
  call void @llvm.lifetime.start.p0(i64 8, ptr %7) #23
  store ptr %4, ptr %7, align 8, !tbaa !24
  call void asm sideeffect "", "*m,~{dirflag},~{fpsr},~{flags}"(ptr elementtype(ptr) %7) #23, !srcloc !28
  %45 = load ptr, ptr %7, align 8, !tbaa !24
  store ptr %45, ptr %8, align 8, !tbaa !24
  call void @llvm.lifetime.end.p0(i64 8, ptr %7) #23
  %46 = load ptr, ptr %8, align 8, !tbaa !24
  %47 = load volatile i64, ptr %46, align 8, !tbaa !6
  br label %48

48:                                               ; preds = %44, %2
  %49 = load i64, ptr %3, align 8, !tbaa !6
  call void @llvm.lifetime.end.p0(i64 8, ptr %6) #23
  call void @llvm.lifetime.end.p0(i64 8, ptr %5) #23
  ret i64 %49
}