; Function Attrs: nounwind sspstrong uwtable
define internal noundef i64 @strscan_init_copy(i64 noundef returned %0, i64 noundef %1) #0 {
  %3 = alloca i64, align 8
  %4 = alloca ptr, align 8
  store i64 %1, ptr %3, align 8, !tbaa !10
  %5 = tail call ptr @rb_check_typeddata(i64 noundef %0, ptr noundef nonnull @strscanner_type) #12
  %6 = tail call ptr @rb_check_typeddata(i64 noundef %1, ptr noundef nonnull @strscanner_type) #12
  %.not = icmp eq ptr %5, %6
  br i1 %.not, label %25, label %7

7:                                                ; preds = %2
  %8 = load i64, ptr %6, align 8, !tbaa !18
  store i64 %8, ptr %5, align 8, !tbaa !18
  %9 = getelementptr inbounds nuw i8, ptr %6, i64 8
  %10 = load i64, ptr %9, align 8, !tbaa !23
  %11 = getelementptr inbounds nuw i8, ptr %5, i64 8
  store i64 %10, ptr %11, align 8, !tbaa !23
  %12 = getelementptr inbounds nuw i8, ptr %6, i64 16
  %13 = load i64, ptr %12, align 8, !tbaa !28
  %14 = getelementptr inbounds nuw i8, ptr %5, i64 16
  store i64 %13, ptr %14, align 8, !tbaa !28
  %15 = getelementptr inbounds nuw i8, ptr %6, i64 24
  %16 = load i64, ptr %15, align 8, !tbaa !29
  %17 = getelementptr inbounds nuw i8, ptr %5, i64 24
  store i64 %16, ptr %17, align 8, !tbaa !29
  %18 = getelementptr inbounds nuw i8, ptr %5, i64 32
  %19 = getelementptr inbounds nuw i8, ptr %6, i64 32
  %20 = tail call i32 @rb_reg_region_copy(ptr noundef nonnull %18, ptr noundef nonnull %19) #12
  %.not15 = icmp eq i32 %20, 0
  br i1 %.not15, label %22, label %21

21:                                               ; preds = %7
  tail call void @rb_memerror() #15
  unreachable

22:                                               ; preds = %7
  call void @llvm.lifetime.start.p0(i64 8, ptr nonnull %4) #12
  store ptr %3, ptr %4, align 8, !tbaa !30
  call void asm sideeffect "", "*m,~{dirflag},~{fpsr},~{flags}"(ptr nonnull elementtype(ptr) %4) #12, !srcloc !31
  %23 = load ptr, ptr %4, align 8, !tbaa !30
  call void @llvm.lifetime.end.p0(i64 8, ptr nonnull %4) #12
  %24 = load volatile i64, ptr %23, align 8, !tbaa !10
  br label %25

25:                                               ; preds = %22, %2
  ret i64 %0
}